target datalayout = "e-m:e-p270:32:32-p271:32:32-p272:64:64-i64:64-i128:128-f80:128-n8:16:32:64-S128"
target triple = "x86_64-pc-linux-gnu"

%struct.SDL_AudioQueue = type { ptr, ptr, ptr, i64, i64, %struct.SDL_MemoryPool, %struct.SDL_MemoryPool }
%struct.SDL_MemoryPool = type { ptr, i64, i64, i64 }
%struct.SDL_AudioTrack = type { %struct.SDL_AudioSpec, ptr, i8, ptr, ptr, ptr, ptr, i64, i64, i64, [8 x i32] }
%struct.SDL_AudioSpec = type { i32, i32, i32 }

; Function Attrs: nounwind uwtable
define internal ptr @AllocNewMemoryPoolBlock(ptr noundef %0) #0 {
  %2 = alloca ptr, align 8
  store ptr %0, ptr %2, align 8
  %3 = load ptr, ptr %2, align 8
  %4 = getelementptr inbounds nuw %struct.SDL_MemoryPool, ptr %3, i32 0, i32 1
  %5 = load i64, ptr %4, align 8
  %6 = call noalias ptr @SDL_malloc_REAL(i64 noundef %5)
  ret ptr %6
}

; Function Attrs: nounwind uwtable
define internal void @FreeMemoryPoolBlock(ptr noundef %0, ptr noundef %1) #0 {
  %3 = alloca ptr, align 8
  %4 = alloca ptr, align 8
  store ptr %0, ptr %3, align 8
  store ptr %1, ptr %4, align 8
  %5 = load ptr, ptr %3, align 8
  %6 = getelementptr inbounds nuw %struct.SDL_MemoryPool, ptr %5, i32 0, i32 2
  %7 = load i64, ptr %6, align 8
  %8 = load ptr, ptr %3, align 8
  %9 = getelementptr inbounds nuw %struct.SDL_MemoryPool, ptr %8, i32 0, i32 3
  %10 = load i64, ptr %9, align 8
  %11 = icmp ult i64 %7, %10
  br i1 %11, label %12, label %24

12:                                               ; preds = %2
  %13 = load ptr, ptr %3, align 8
  %14 = getelementptr inbounds nuw %struct.SDL_MemoryPool, ptr %13, i32 0, i32 0
  %15 = load ptr, ptr %14, align 8
  %16 = load ptr, ptr %4, align 8
  store ptr %15, ptr %16, align 8
  %17 = load ptr, ptr %4, align 8
  %18 = load ptr, ptr %3, align 8
  %19 = getelementptr inbounds nuw %struct.SDL_MemoryPool, ptr %18, i32 0, i32 0
  store ptr %17, ptr %19, align 8
  %20 = load ptr, ptr %3, align 8
  %21 = getelementptr inbounds nuw %struct.SDL_MemoryPool, ptr %20, i32 0, i32 2
  %22 = load i64, ptr %21, align 8
  %23 = add i64 %22, 1
  store i64 %23, ptr %21, align 8
  br label %26

24:                                               ; preds = %2
  %25 = load ptr, ptr %4, align 8
  call void @SDL_free_REAL(ptr noundef %25)
  br label %26

26:                                               ; preds = %24, %12
  ret void
}

; Function Attrs: nounwind uwtable
define hidden ptr @SDL_CreateAudioTrack(ptr noundef %0, ptr noundef %1, ptr noundef %2, ptr noundef %3, i64 noundef %4, i64 noundef %5, ptr noundef %6, ptr noundef %7) #0 {
  %9 = alloca ptr, align 8
  %10 = alloca ptr, align 8
  %11 = alloca ptr, align 8
  %12 = alloca ptr, align 8
  %13 = alloca ptr, align 8
  %14 = alloca i64, align 8
  %15 = alloca i64, align 8
  %16 = alloca ptr, align 8
  %17 = alloca ptr, align 8
  %18 = alloca ptr, align 8
  %19 = alloca i32, align 4
  store ptr %0, ptr %10, align 8
  store ptr %1, ptr %11, align 8
  store ptr %2, ptr %12, align 8
  store ptr %3, ptr %13, align 8
  store i64 %4, ptr %14, align 8
  store i64 %5, ptr %15, align 8
  store ptr %6, ptr %16, align 8
  store ptr %7, ptr %17, align 8
  call void @llvm.lifetime.start.p0(i64 8, ptr %18) #6
  %20 = load ptr, ptr %10, align 8
  %21 = getelementptr inbounds nuw %struct.SDL_AudioQueue, ptr %20, i32 0, i32 5
  %22 = call ptr @AllocMemoryPoolBlock(ptr noundef %21)
  store ptr %22, ptr %18, align 8
  %23 = load ptr, ptr %18, align 8
  %24 = icmp ne ptr %23, null
  br i1 %24, label %26, label %25

25:                                               ; preds = %8
  store ptr null, ptr %9, align 8
  store i32 1, ptr %19, align 4
  br label %70

26:                                               ; preds = %8
  %27 = load ptr, ptr %18, align 8
  call void @llvm.memset.p0.i64(ptr align 8 %27, i8 0, i64 120, i1 false)
  %28 = load ptr, ptr %12, align 8
  %29 = icmp ne ptr %28, null
  br i1 %29, label %30, label %48

30:                                               ; preds = %26
  br label %31

31:                                               ; preds = %30
  br label %32

32:                                               ; preds = %31
  br label %33

33:                                               ; preds = %32
  %34 = load ptr, ptr %18, align 8
  %35 = getelementptr inbounds nuw %struct.SDL_AudioTrack, ptr %34, i32 0, i32 10
  %36 = getelementptr inbounds [8 x i32], ptr %35, i64 0, i64 0
  %37 = load ptr, ptr %12, align 8
  %38 = load ptr, ptr %11, align 8
  %39 = getelementptr inbounds nuw %struct.SDL_AudioSpec, ptr %38, i32 0, i32 1
  %40 = load i32, ptr %39, align 4
  %41 = sext i32 %40 to i64
  %42 = mul i64 4, %41
  call void @llvm.memcpy.p0.p0.i64(ptr align 8 %36, ptr align 4 %37, i64 %42, i1 false)
  %43 = load ptr, ptr %18, align 8
  %44 = getelementptr inbounds nuw %struct.SDL_AudioTrack, ptr %43, i32 0, i32 10
  %45 = getelementptr inbounds [8 x i32], ptr %44, i64 0, i64 0
  %46 = load ptr, ptr %18, align 8
  %47 = getelementptr inbounds nuw %struct.SDL_AudioTrack, ptr %46, i32 0, i32 1
  store ptr %45, ptr %47, align 8
  br label %48

48:                                               ; preds = %33, %26
  %49 = load ptr, ptr %18, align 8
  %50 = getelementptr inbounds nuw %struct.SDL_AudioTrack, ptr %49, i32 0, i32 0
  %51 = load ptr, ptr %11, align 8
  call void @llvm.memcpy.p0.p0.i64(ptr align 8 %50, ptr align 4 %51, i64 12, i1 false)
  %52 = load ptr, ptr %17, align 8
  %53 = load ptr, ptr %18, align 8
  %54 = getelementptr inbounds nuw %struct.SDL_AudioTrack, ptr %53, i32 0, i32 4
  store ptr %52, ptr %54, align 8
  %55 = load ptr, ptr %16, align 8
  %56 = load ptr, ptr %18, align 8
  %57 = getelementptr inbounds nuw %struct.SDL_AudioTrack, ptr %56, i32 0, i32 5
  store ptr %55, ptr %57, align 8
  %58 = load ptr, ptr %13, align 8
  %59 = load ptr, ptr %18, align 8
  %60 = getelementptr inbounds nuw %struct.SDL_AudioTrack, ptr %59, i32 0, i32 6
  store ptr %58, ptr %60, align 8
  %61 = load ptr, ptr %18, align 8
  %62 = getelementptr inbounds nuw %struct.SDL_AudioTrack, ptr %61, i32 0, i32 7
  store i64 0, ptr %62, align 8
  %63 = load i64, ptr %14, align 8
  %64 = load ptr, ptr %18, align 8
  %65 = getelementptr inbounds nuw %struct.SDL_AudioTrack, ptr %64, i32 0, i32 8
  store i64 %63, ptr %65, align 8
  %66 = load i64, ptr %15, align 8
  %67 = load ptr, ptr %18, align 8
  %68 = getelementptr inbounds nuw %struct.SDL_AudioTrack, ptr %67, i32 0, i32 9
  store i64 %66, ptr %68, align 8
  %69 = load ptr, ptr %18, align 8
  store ptr %69, ptr %9, align 8
  store i32 1, ptr %19, align 4
  br label %70

70:                                               ; preds = %48, %25
  call void @llvm.lifetime.end.p0(i64 8, ptr %18) #6
  %71 = load ptr, ptr %9, align 8
  ret ptr %71
}

; Function Attrs: nounwind uwtable
define internal ptr @AllocMemoryPoolBlock(ptr noundef %0) #0 {
  %2 = alloca ptr, align 8
  %3 = alloca ptr, align 8
  %4 = alloca ptr, align 8
  store ptr %0, ptr %3, align 8
  %5 = load ptr, ptr %3, align 8
  %6 = getelementptr inbounds nuw %struct.SDL_MemoryPool, ptr %5, i32 0, i32 2
  %7 = load i64, ptr %6, align 8
  %8 = icmp eq i64 %7, 0
  br i1 %8, label %9, label %12

9:                                                ; preds = %1
  %10 = load ptr, ptr %3, align 8
  %11 = call ptr @AllocNewMemoryPoolBlock(ptr noundef %10)
  store ptr %11, ptr %2, align 8
  br label %25

12:                                               ; preds = %1
  call void @llvm.lifetime.start.p0(i64 8, ptr %4) #6
  %13 = load ptr, ptr %3, align 8
  %14 = getelementptr inbounds nuw %struct.SDL_MemoryPool, ptr %13, i32 0, i32 0
  %15 = load ptr, ptr %14, align 8
  store ptr %15, ptr %4, align 8
  %16 = load ptr, ptr %4, align 8
  %17 = load ptr, ptr %16, align 8
  %18 = load ptr, ptr %3, align 8
  %19 = getelementptr inbounds nuw %struct.SDL_MemoryPool, ptr %18, i32 0, i32 0
  store ptr %17, ptr %19, align 8
  %20 = load ptr, ptr %3, align 8
  %21 = getelementptr inbounds nuw %struct.SDL_MemoryPool, ptr %20, i32 0, i32 2
  %22 = load i64, ptr %21, align 8
  %23 = add i64 %22, -1
  store i64 %23, ptr %21, align 8
  %24 = load ptr, ptr %4, align 8
  store ptr %24, ptr %2, align 8
  call void @llvm.lifetime.end.p0(i64 8, ptr %4) #6
  br label %25

25:                                               ; preds = %12, %9
  %26 = load ptr, ptr %2, align 8
  ret ptr %26
}

; Function Attrs: nounwind uwtable
define internal ptr @CreateChunkedAudioTrack(ptr noundef %0, ptr noundef %1, ptr noundef %2) #0 {
  %4 = alloca ptr, align 8
  %5 = alloca ptr, align 8
  %6 = alloca ptr, align 8
  %7 = alloca ptr, align 8
  %8 = alloca ptr, align 8
  %9 = alloca i32, align 4
  %10 = alloca i64, align 8
  %11 = alloca ptr, align 8
  store ptr %0, ptr %5, align 8
  store ptr %1, ptr %6, align 8
  store ptr %2, ptr %7, align 8
  call void @llvm.lifetime.start.p0(i64 8, ptr %8) #6
  %12 = load ptr, ptr %5, align 8
  %13 = getelementptr inbounds nuw %struct.SDL_AudioQueue, ptr %12, i32 0, i32 6
  %14 = call ptr @AllocMemoryPoolBlock(ptr noundef %13)
  store ptr %14, ptr %8, align 8
  %15 = load ptr, ptr %8, align 8
  %16 = icmp ne ptr %15, null
  br i1 %16, label %18, label %17

17:                                               ; preds = %3
  store ptr null, ptr %4, align 8
  store i32 1, ptr %9, align 4
  br label %53

18:                                               ; preds = %3
  call void @llvm.lifetime.start.p0(i64 8, ptr %10) #6
  %19 = load ptr, ptr %5, align 8
  %20 = getelementptr inbounds nuw %struct.SDL_AudioQueue, ptr %19, i32 0, i32 6
  %21 = getelementptr inbounds nuw %struct.SDL_MemoryPool, ptr %20, i32 0, i32 1
  %22 = load i64, ptr %21, align 8
  store i64 %22, ptr %10, align 8
  %23 = load i64, ptr %10, align 8
  %24 = load ptr, ptr %6, align 8
  %25 = getelementptr inbounds nuw %struct.SDL_AudioSpec, ptr %24, i32 0, i32 0
  %26 = load i32, ptr %25, align 4
  %27 = and i32 %26, 255
  %28 = udiv i32 %27, 8
  %29 = load ptr, ptr %6, align 8
  %30 = getelementptr inbounds nuw %struct.SDL_AudioSpec, ptr %29, i32 0, i32 1
  %31 = load i32, ptr %30, align 4
  %32 = mul i32 %28, %31
  %33 = zext i32 %32 to i64
  %34 = urem i64 %23, %33
  %35 = load i64, ptr %10, align 8
  %36 = sub i64 %35, %34
  store i64 %36, ptr %10, align 8
  call void @llvm.lifetime.start.p0(i64 8, ptr %11) #6
  %37 = load ptr, ptr %5, align 8
  %38 = load ptr, ptr %6, align 8
  %39 = load ptr, ptr %7, align 8
  %40 = load ptr, ptr %8, align 8
  %41 = load i64, ptr %10, align 8
  %42 = load ptr, ptr %5, align 8
  %43 = call ptr @SDL_CreateAudioTrack(ptr noundef %37, ptr noundef %38, ptr noundef %39, ptr noundef %40, i64 noundef 0, i64 noundef %41, ptr noundef @FreeChunkedAudioBuffer, ptr noundef %42)
  store ptr %43, ptr %11, align 8
  %44 = load ptr, ptr %11, align 8
  %45 = icmp ne ptr %44, null
  br i1 %45, label %50, label %46

46:                                               ; preds = %18
  %47 = load ptr, ptr %5, align 8
  %48 = getelementptr inbounds nuw %struct.SDL_AudioQueue, ptr %47, i32 0, i32 6
  %49 = load ptr, ptr %8, align 8
  call void @FreeMemoryPoolBlock(ptr noundef %48, ptr noundef %49)
  store ptr null, ptr %4, align 8
  store i32 1, ptr %9, align 4
  br label %52

50:                                               ; preds = %18
  %51 = load ptr, ptr %11, align 8
  store ptr %51, ptr %4, align 8
  store i32 1, ptr %9, align 4
  br label %52

52:                                               ; preds = %50, %46
  call void @llvm.lifetime.end.p0(i64 8, ptr %11) #6
  call void @llvm.lifetime.end.p0(i64 8, ptr %10) #6
  br label %53

53:                                               ; preds = %52, %17
  call void @llvm.lifetime.end.p0(i64 8, ptr %8) #6
  %54 = load ptr, ptr %4, align 8
  ret ptr %54
}