; Function Attrs: nounwind uwtable
define internal fastcc noundef ptr @CreateChunkedAudioTrack(ptr noundef %0, ptr noundef readonly captures(none) %1, ptr noundef readonly captures(address_is_null) %2) unnamed_addr #0 {
  %4 = getelementptr inbounds nuw i8, ptr %0, i64 72
  %5 = getelementptr inbounds nuw i8, ptr %0, i64 88
  %6 = load i64, ptr %5, align 8
  %7 = icmp eq i64 %6, 0
  br i1 %7, label %AllocMemoryPoolBlock.exit, label %AllocMemoryPoolBlock.exit.thread

AllocMemoryPoolBlock.exit.thread:                 ; preds = %3
  %8 = load ptr, ptr %4, align 8
  %9 = load ptr, ptr %8, align 8
  store ptr %9, ptr %4, align 8
  %10 = add i64 %6, -1
  store i64 %10, ptr %5, align 8
  br label %13

AllocMemoryPoolBlock.exit:                        ; preds = %3
  %11 = getelementptr i8, ptr %0, i64 80
  %.val.i = load i64, ptr %11, align 8
  %12 = tail call noalias ptr @SDL_malloc_REAL(i64 noundef %.val.i) #10
  %.not = icmp eq ptr %12, null
  br i1 %.not, label %FreeMemoryPoolBlock.exit, label %13

13:                                               ; preds = %AllocMemoryPoolBlock.exit.thread, %AllocMemoryPoolBlock.exit
  %.0.i23 = phi ptr [ %8, %AllocMemoryPoolBlock.exit.thread ], [ %12, %AllocMemoryPoolBlock.exit ]
  %14 = getelementptr inbounds nuw i8, ptr %0, i64 80
  %15 = load i64, ptr %14, align 8
  %16 = load i32, ptr %1, align 4
  %17 = lshr i32 %16, 3
  %18 = and i32 %17, 31
  %19 = getelementptr inbounds nuw i8, ptr %1, i64 4
  %20 = load i32, ptr %19, align 4
  %21 = mul i32 %18, %20
  %22 = zext i32 %21 to i64
  %23 = urem i64 %15, %22
  %24 = sub i64 %15, %23
  %25 = getelementptr inbounds nuw i8, ptr %0, i64 56
  %26 = load i64, ptr %25, align 8
  %27 = icmp eq i64 %26, 0
  br i1 %27, label %AllocMemoryPoolBlock.exit.i, label %AllocMemoryPoolBlock.exit.thread.i

AllocMemoryPoolBlock.exit.thread.i:               ; preds = %13
  %28 = getelementptr inbounds nuw i8, ptr %0, i64 40
  %29 = load ptr, ptr %28, align 8
  %30 = load ptr, ptr %29, align 8
  store ptr %30, ptr %28, align 8
  %31 = add i64 %26, -1
  store i64 %31, ptr %25, align 8
  br label %34

AllocMemoryPoolBlock.exit.i:                      ; preds = %13
  %32 = getelementptr i8, ptr %0, i64 48
  %.val.i.i = load i64, ptr %32, align 8
  %33 = tail call noalias ptr @SDL_malloc_REAL(i64 noundef %.val.i.i) #10
  %.not.i = icmp eq ptr %33, null
  br i1 %.not.i, label %46, label %34

34:                                               ; preds = %AllocMemoryPoolBlock.exit.i, %AllocMemoryPoolBlock.exit.thread.i
  %.0.i28.i = phi ptr [ %29, %AllocMemoryPoolBlock.exit.thread.i ], [ %33, %AllocMemoryPoolBlock.exit.i ]
  tail call void @llvm.memset.p0.i64(ptr noundef nonnull align 8 dereferenceable(120) %.0.i28.i, i8 0, i64 120, i1 false)
  %.not25.i = icmp eq ptr %2, null
  br i1 %.not25.i, label %SDL_CreateAudioTrack.exit, label %35

35:                                               ; preds = %34
  %36 = getelementptr inbounds nuw i8, ptr %.0.i28.i, i64 88
  %37 = load i32, ptr %19, align 4
  %38 = sext i32 %37 to i64
  %39 = shl nsw i64 %38, 2
  tail call void @llvm.memcpy.p0.p0.i64(ptr nonnull align 8 %36, ptr nonnull readonly align 4 %2, i64 %39, i1 false)
  %40 = getelementptr inbounds nuw i8, ptr %.0.i28.i, i64 16
  store ptr %36, ptr %40, align 8
  br label %SDL_CreateAudioTrack.exit

SDL_CreateAudioTrack.exit:                        ; preds = %34, %35
  tail call void @llvm.memcpy.p0.p0.i64(ptr noundef nonnull align 8 dereferenceable(12) %.0.i28.i, ptr noundef nonnull readonly align 4 dereferenceable(12) %1, i64 12, i1 false)
  %41 = getelementptr inbounds nuw i8, ptr %.0.i28.i, i64 40
  store ptr %0, ptr %41, align 8
  %42 = getelementptr inbounds nuw i8, ptr %.0.i28.i, i64 48
  store ptr @FreeChunkedAudioBuffer, ptr %42, align 8
  %43 = getelementptr inbounds nuw i8, ptr %.0.i28.i, i64 56
  store ptr %.0.i23, ptr %43, align 8
  %44 = getelementptr inbounds nuw i8, ptr %.0.i28.i, i64 64
  %45 = getelementptr inbounds nuw i8, ptr %.0.i28.i, i64 80
  tail call void @llvm.memset.p0.i64(ptr noundef nonnull align 8 dereferenceable(16) %44, i8 0, i64 16, i1 false)
  store i64 %24, ptr %45, align 8
  br label %FreeMemoryPoolBlock.exit

46:                                               ; preds = %AllocMemoryPoolBlock.exit.i
  %47 = load i64, ptr %5, align 8
  %48 = getelementptr inbounds nuw i8, ptr %0, i64 96
  %49 = load i64, ptr %48, align 8
  %50 = icmp ult i64 %47, %49
  br i1 %50, label %51, label %55

51:                                               ; preds = %46
  %52 = load ptr, ptr %4, align 8
  store ptr %52, ptr %.0.i23, align 8
  store ptr %.0.i23, ptr %4, align 8
  %53 = load i64, ptr %5, align 8
  %54 = add i64 %53, 1
  store i64 %54, ptr %5, align 8
  br label %FreeMemoryPoolBlock.exit

55:                                               ; preds = %46
  tail call void @SDL_free_REAL(ptr noundef nonnull %.0.i23) #10
  br label %FreeMemoryPoolBlock.exit

FreeMemoryPoolBlock.exit:                         ; preds = %55, %51, %SDL_CreateAudioTrack.exit, %AllocMemoryPoolBlock.exit
  %.0 = phi ptr [ null, %AllocMemoryPoolBlock.exit ], [ %.0.i28.i, %SDL_CreateAudioTrack.exit ], [ null, %51 ], [ null, %55 ]
  ret ptr %.0
}